target datalayout = "e-m:e-p270:32:32-p271:32:32-p272:64:64-i64:64-i128:128-f80:128-n8:16:32:64-S128"
target triple = "x86_64-pc-linux-gnu"

%struct.cl_engine = type { i32, i32, i32, [2 x i32], i32, i32, i32, ptr, i32, i64, i32, i32, i64, i64, i32, i32, i32, i32, ptr, ptr, ptr, ptr, ptr, ptr, ptr, ptr, ptr, ptr, ptr, ptr, ptr, ptr, ptr, ptr, ptr, ptr, ptr, i64, ptr, %struct.crtmgr, ptr, ptr, ptr, ptr, ptr, ptr, ptr, ptr, ptr, ptr, ptr, ptr, ptr, ptr, ptr, ptr, ptr, %struct.cli_all_bc, [7 x ptr], [7 x i32], i32, i32, i32, i32, i64, i64, i64, i64, i64, ptr, ptr, ptr, ptr, ptr, ptr, ptr, ptr, ptr, i32, i32, i32, i64, i64, i64, ptr }
%struct.crtmgr = type { ptr, i32 }
%struct.cli_all_bc = type { ptr, i32, ptr, %struct.cli_environment, i32 }
%struct.cli_environment = type { i32, i32, i32, i32, i32, i32, i32, [65 x i8], [65 x i8], [65 x i8], [65 x i8], [65 x i8], [65 x i8], [65 x i8], i8, i8, i8, i8, i8, i8, i8, i8, i8 }
%struct.CACHE = type { %struct.cache_set, i32, i32, %union.pthread_mutex_t }
%struct.cache_set = type { ptr, ptr, ptr, ptr }
%union.pthread_mutex_t = type { %struct.__pthread_mutex_s }
%struct.__pthread_mutex_s = type { i32, i32, i32, i32, i32, i16, i16, %struct.__pthread_internal_list }
%struct.__pthread_internal_list = type { ptr, ptr }
%struct.cli_ctx_tag = type { ptr, ptr, ptr, ptr, ptr, ptr, ptr, i64, ptr, i32, i32, ptr, i32, i32, ptr, [16 x i8], ptr, ptr, ptr, ptr, ptr, ptr, %struct.timeval, i8, i8 }
%struct.timeval = type { i64, i64 }
%struct.cl_scan_options = type { i32, i32, i32, i32, i32 }
%struct.cl_fmap = type { ptr, ptr, ptr, i64, i64, i64, i64, i8, i8, i8, i64, i64, i64, i64, ptr, ptr, ptr, ptr, ptr, ptr, ptr, i8, [16 x i8], i8, [20 x i8], i8, [32 x i8], ptr, ptr }

@.str.4 = private unnamed_addr constant [64 x i8] c"clean_cache_add: Caching disabled. Not adding sample to cache.\0A\00", align 1
@.str.5 = private unnamed_addr constant [62 x i8] c"clean_cache_add: No hash available. Nothing to add to cache.\0A\00", align 1
@.str.6 = private unnamed_addr constant [67 x i8] c"clean_cache_add: collect metadata feature enabled, skipping cache\0A\00", align 1
@.str.7 = private unnamed_addr constant [66 x i8] c"clean_cache_add: caching disabled for this layer, skipping cache\0A\00", align 1
@.str.8 = private unnamed_addr constant [66 x i8] c"clean_cache_add: alert found within same topfile, skipping cache\0A\00", align 1
@.str.9 = private unnamed_addr constant [26 x i8] c"cli_add: mutex lock fail\0A\00", align 1
@.str.10 = private unnamed_addr constant [4 x i8] c"%s\0A\00", align 1
@.str.11 = private unnamed_addr constant [94 x i8] c"clean_cache_add: %02x%02x%02x%02x%02x%02x%02x%02x%02x%02x%02x%02x%02x%02x%02x%02x (level %u)\0A\00", align 1

; Function Attrs: nounwind uwtable
define internal i32 @getkey(ptr noundef %0, i64 noundef %1) #0 {
  %3 = alloca i32, align 4
  %4 = alloca ptr, align 8
  %5 = alloca i64, align 8
  store ptr %0, ptr %4, align 8
  store i64 %1, ptr %5, align 8
  %6 = load ptr, ptr %4, align 8
  %7 = icmp ne ptr %6, null
  br i1 %7, label %8, label %23

8:                                                ; preds = %2
  %9 = load ptr, ptr %4, align 8
  %10 = getelementptr inbounds i8, ptr %9, i64 0
  %11 = load i8, ptr %10, align 1
  %12 = zext i8 %11 to i32
  %13 = load ptr, ptr %4, align 8
  %14 = getelementptr inbounds i8, ptr %13, i64 1
  %15 = load i8, ptr %14, align 1
  %16 = zext i8 %15 to i32
  %17 = shl i32 %16, 8
  %18 = or i32 %12, %17
  %19 = zext i32 %18 to i64
  %20 = load i64, ptr %5, align 8
  %21 = urem i64 %19, %20
  %22 = trunc i64 %21 to i32
  store i32 %22, ptr %3, align 4
  br label %24

23:                                               ; preds = %2
  store i32 0, ptr %3, align 4
  br label %24

24:                                               ; preds = %23, %8
  %25 = load i32, ptr %3, align 4
  ret i32 %25
}

; Function Attrs: nounwind uwtable
define void @clean_cache_add(ptr noundef %0, i64 noundef %1, ptr noundef %2) #0 {
  %4 = alloca ptr, align 8
  %5 = alloca i64, align 8
  %6 = alloca ptr, align 8
  %7 = alloca ptr, align 8
  %8 = alloca i32, align 4
  %9 = alloca i32, align 4
  %10 = alloca ptr, align 8
  store ptr %0, ptr %4, align 8
  store i64 %1, ptr %5, align 8
  store ptr %2, ptr %6, align 8
  store ptr null, ptr %7, align 8
  store i32 0, ptr %8, align 4
  %11 = load ptr, ptr %6, align 8
  %12 = icmp ne ptr %11, null
  br i1 %12, label %13, label %25

13:                                               ; preds = %3
  %14 = load ptr, ptr %6, align 8
  %15 = getelementptr inbounds %struct.cli_ctx_tag, ptr %14, i32 0, i32 6
  %16 = load ptr, ptr %15, align 8
  %17 = icmp ne ptr %16, null
  br i1 %17, label %18, label %25

18:                                               ; preds = %13
  %19 = load ptr, ptr %6, align 8
  %20 = getelementptr inbounds %struct.cli_ctx_tag, ptr %19, i32 0, i32 6
  %21 = load ptr, ptr %20, align 8
  %22 = getelementptr inbounds %struct.cl_engine, ptr %21, i32 0, i32 35
  %23 = load ptr, ptr %22, align 8
  %24 = icmp ne ptr %23, null
  br i1 %24, label %26, label %25

25:                                               ; preds = %18, %13, %3
  br label %192

26:                                               ; preds = %18
  %27 = load ptr, ptr %6, align 8
  %28 = getelementptr inbounds %struct.cli_ctx_tag, ptr %27, i32 0, i32 6
  %29 = load ptr, ptr %28, align 8
  %30 = getelementptr inbounds %struct.cl_engine, ptr %29, i32 0, i32 9
  %31 = load i64, ptr %30, align 8
  %32 = and i64 %31, 1
  %33 = icmp ne i64 %32, 0
  br i1 %33, label %34, label %35

34:                                               ; preds = %26
  call void (ptr, ...) @cli_dbgmsg(ptr noundef @.str.4)
  br label %192

35:                                               ; preds = %26
  %36 = load ptr, ptr %4, align 8
  %37 = icmp ne ptr %36, null
  br i1 %37, label %39, label %38

38:                                               ; preds = %35
  call void (ptr, ...) @cli_dbgmsg(ptr noundef @.str.5)
  br label %192

39:                                               ; preds = %35
  %40 = load ptr, ptr %6, align 8
  %41 = getelementptr inbounds %struct.cli_ctx_tag, ptr %40, i32 0, i32 8
  %42 = load ptr, ptr %41, align 8
  %43 = getelementptr inbounds %struct.cl_scan_options, ptr %42, i32 0, i32 0
  %44 = load i32, ptr %43, align 4
  %45 = and i32 %44, 2
  %46 = icmp ne i32 %45, 0
  br i1 %46, label %47, label %48

47:                                               ; preds = %39
  call void (ptr, ...) @cli_dbgmsg(ptr noundef @.str.6)
  br label %192

48:                                               ; preds = %39
  %49 = load ptr, ptr %6, align 8
  %50 = getelementptr inbounds %struct.cli_ctx_tag, ptr %49, i32 0, i32 14
  %51 = load ptr, ptr %50, align 8
  %52 = icmp ne ptr %51, null
  br i1 %52, label %53, label %63

53:                                               ; preds = %48
  %54 = load ptr, ptr %6, align 8
  %55 = getelementptr inbounds %struct.cli_ctx_tag, ptr %54, i32 0, i32 14
  %56 = load ptr, ptr %55, align 8
  %57 = getelementptr inbounds %struct.cl_fmap, ptr %56, i32 0, i32 8
  %58 = load i8, ptr %57, align 1
  %59 = trunc i8 %58 to i1
  %60 = zext i1 %59 to i32
  %61 = icmp eq i32 %60, 1
  br i1 %61, label %62, label %63

62:                                               ; preds = %53
  call void (ptr, ...) @cli_dbgmsg(ptr noundef @.str.7)
  br label %192

63:                                               ; preds = %53, %48
  %64 = load ptr, ptr %6, align 8
  %65 = getelementptr inbounds %struct.cli_ctx_tag, ptr %64, i32 0, i32 3
  %66 = load ptr, ptr %65, align 8
  %67 = call i64 @evidence_num_alerts(ptr noundef %66)
  %68 = icmp ult i64 0, %67
  br i1 %68, label %69, label %70

69:                                               ; preds = %63
  call void (ptr, ...) @cli_dbgmsg(ptr noundef @.str.8)
  br label %192

70:                                               ; preds = %63
  %71 = load ptr, ptr %6, align 8
  %72 = getelementptr inbounds %struct.cli_ctx_tag, ptr %71, i32 0, i32 14
  %73 = load ptr, ptr %72, align 8
  %74 = icmp ne ptr %73, null
  br i1 %74, label %75, label %86

75:                                               ; preds = %70
  %76 = load ptr, ptr %6, align 8
  %77 = getelementptr inbounds %struct.cli_ctx_tag, ptr %76, i32 0, i32 14
  %78 = load ptr, ptr %77, align 8
  %79 = getelementptr inbounds %struct.cl_fmap, ptr %78, i32 0, i32 8
  %80 = load i8, ptr %79, align 1
  %81 = trunc i8 %80 to i1
  br i1 %81, label %82, label %86

82:                                               ; preds = %75
  %83 = load ptr, ptr %6, align 8
  %84 = getelementptr inbounds %struct.cli_ctx_tag, ptr %83, i32 0, i32 13
  %85 = load i32, ptr %84, align 4
  br label %87

86:                                               ; preds = %75, %70
  br label %87

87:                                               ; preds = %86, %82
  %88 = phi i32 [ %85, %82 ], [ 0, %86 ]
  store i32 %88, ptr %9, align 4
  %89 = load ptr, ptr %4, align 8
  %90 = load ptr, ptr %6, align 8
  %91 = getelementptr inbounds %struct.cli_ctx_tag, ptr %90, i32 0, i32 6
  %92 = load ptr, ptr %91, align 8
  %93 = getelementptr inbounds %struct.cl_engine, ptr %92, i32 0, i32 35
  %94 = load ptr, ptr %93, align 8
  %95 = getelementptr inbounds %struct.CACHE, ptr %94, i32 0, i32 1
  %96 = load i32, ptr %95, align 8
  %97 = zext i32 %96 to i64
  %98 = call i32 @getkey(ptr noundef %89, i64 noundef %97)
  store i32 %98, ptr %8, align 4
  %99 = load ptr, ptr %6, align 8
  %100 = getelementptr inbounds %struct.cli_ctx_tag, ptr %99, i32 0, i32 6
  %101 = load ptr, ptr %100, align 8
  %102 = getelementptr inbounds %struct.cl_engine, ptr %101, i32 0, i32 35
  %103 = load ptr, ptr %102, align 8
  %104 = load i32, ptr %8, align 4
  %105 = zext i32 %104 to i64
  %106 = getelementptr inbounds %struct.CACHE, ptr %103, i64 %105
  store ptr %106, ptr %10, align 8
  %107 = load ptr, ptr %10, align 8
  %108 = getelementptr inbounds %struct.CACHE, ptr %107, i32 0, i32 3
  %109 = call i32 @pthread_mutex_lock(ptr noundef %108) #6
  %110 = icmp ne i32 %109, 0
  br i1 %110, label %111, label %112

111:                                              ; preds = %87
  call void (ptr, ...) @cli_errmsg(ptr noundef @.str.9)
  br label %192

112:                                              ; preds = %87
  %113 = load ptr, ptr %10, align 8
  %114 = getelementptr inbounds %struct.CACHE, ptr %113, i32 0, i32 0
  %115 = load ptr, ptr %4, align 8
  %116 = load i64, ptr %5, align 8
  %117 = load i32, ptr %9, align 4
  %118 = call ptr @cacheset_add(ptr noundef %114, ptr noundef %115, i64 noundef %116, i32 noundef %117)
  store ptr %118, ptr %7, align 8
  %119 = load ptr, ptr %10, align 8
  %120 = getelementptr inbounds %struct.CACHE, ptr %119, i32 0, i32 3
  %121 = call i32 @pthread_mutex_unlock(ptr noundef %120) #6
  %122 = load ptr, ptr %7, align 8
  %123 = icmp ne ptr %122, null
  br i1 %123, label %124, label %126

124:                                              ; preds = %112
  %125 = load ptr, ptr %7, align 8
  call void (ptr, ...) @cli_errmsg(ptr noundef @.str.10, ptr noundef %125)
  br label %126

126:                                              ; preds = %124, %112
  %127 = load ptr, ptr %4, align 8
  %128 = getelementptr inbounds i8, ptr %127, i64 0
  %129 = load i8, ptr %128, align 1
  %130 = zext i8 %129 to i32
  %131 = load ptr, ptr %4, align 8
  %132 = getelementptr inbounds i8, ptr %131, i64 1
  %133 = load i8, ptr %132, align 1
  %134 = zext i8 %133 to i32
  %135 = load ptr, ptr %4, align 8
  %136 = getelementptr inbounds i8, ptr %135, i64 2
  %137 = load i8, ptr %136, align 1
  %138 = zext i8 %137 to i32
  %139 = load ptr, ptr %4, align 8
  %140 = getelementptr inbounds i8, ptr %139, i64 3
  %141 = load i8, ptr %140, align 1
  %142 = zext i8 %141 to i32
  %143 = load ptr, ptr %4, align 8
  %144 = getelementptr inbounds i8, ptr %143, i64 4
  %145 = load i8, ptr %144, align 1
  %146 = zext i8 %145 to i32
  %147 = load ptr, ptr %4, align 8
  %148 = getelementptr inbounds i8, ptr %147, i64 5
  %149 = load i8, ptr %148, align 1
  %150 = zext i8 %149 to i32
  %151 = load ptr, ptr %4, align 8
  %152 = getelementptr inbounds i8, ptr %151, i64 6
  %153 = load i8, ptr %152, align 1
  %154 = zext i8 %153 to i32
  %155 = load ptr, ptr %4, align 8
  %156 = getelementptr inbounds i8, ptr %155, i64 7
  %157 = load i8, ptr %156, align 1
  %158 = zext i8 %157 to i32
  %159 = load ptr, ptr %4, align 8
  %160 = getelementptr inbounds i8, ptr %159, i64 8
  %161 = load i8, ptr %160, align 1
  %162 = zext i8 %161 to i32
  %163 = load ptr, ptr %4, align 8
  %164 = getelementptr inbounds i8, ptr %163, i64 9
  %165 = load i8, ptr %164, align 1
  %166 = zext i8 %165 to i32
  %167 = load ptr, ptr %4, align 8
  %168 = getelementptr inbounds i8, ptr %167, i64 10
  %169 = load i8, ptr %168, align 1
  %170 = zext i8 %169 to i32
  %171 = load ptr, ptr %4, align 8
  %172 = getelementptr inbounds i8, ptr %171, i64 11
  %173 = load i8, ptr %172, align 1
  %174 = zext i8 %173 to i32
  %175 = load ptr, ptr %4, align 8
  %176 = getelementptr inbounds i8, ptr %175, i64 12
  %177 = load i8, ptr %176, align 1
  %178 = zext i8 %177 to i32
  %179 = load ptr, ptr %4, align 8
  %180 = getelementptr inbounds i8, ptr %179, i64 13
  %181 = load i8, ptr %180, align 1
  %182 = zext i8 %181 to i32
  %183 = load ptr, ptr %4, align 8
  %184 = getelementptr inbounds i8, ptr %183, i64 14
  %185 = load i8, ptr %184, align 1
  %186 = zext i8 %185 to i32
  %187 = load ptr, ptr %4, align 8
  %188 = getelementptr inbounds i8, ptr %187, i64 15
  %189 = load i8, ptr %188, align 1
  %190 = zext i8 %189 to i32
  %191 = load i32, ptr %9, align 4
  call void (ptr, ...) @cli_dbgmsg(ptr noundef @.str.11, i32 noundef %130, i32 noundef %134, i32 noundef %138, i32 noundef %142, i32 noundef %146, i32 noundef %150, i32 noundef %154, i32 noundef %158, i32 noundef %162, i32 noundef %166, i32 noundef %170, i32 noundef %174, i32 noundef %178, i32 noundef %182, i32 noundef %186, i32 noundef %190, i32 noundef %191)
  br label %192

192:                                              ; preds = %126, %111, %69, %62, %47, %38, %34, %25
  ret void
}