; Function Attrs: nounwind uwtable
define void @clean_cache_add(ptr noundef readonly %0, i64 noundef %1, ptr noundef readonly %2) local_unnamed_addr #0 {
  %.not = icmp eq ptr %2, null
  br i1 %.not, label %111, label %4

4:                                                ; preds = %3
  %5 = getelementptr inbounds i8, ptr %2, i64 48
  %6 = load ptr, ptr %5, align 8
  %.not45 = icmp eq ptr %6, null
  br i1 %.not45, label %111, label %7

7:                                                ; preds = %4
  %8 = getelementptr inbounds i8, ptr %6, i64 232
  %9 = load ptr, ptr %8, align 8
  %.not46 = icmp eq ptr %9, null
  br i1 %.not46, label %111, label %10

10:                                               ; preds = %7
  %11 = getelementptr inbounds i8, ptr %6, i64 48
  %12 = load i64, ptr %11, align 8
  %13 = and i64 %12, 1
  %.not47 = icmp eq i64 %13, 0
  br i1 %.not47, label %15, label %14

14:                                               ; preds = %10
  tail call void (ptr, ...) @cli_dbgmsg(ptr noundef nonnull @.str.4) #9
  br label %111

15:                                               ; preds = %10
  %.not48 = icmp eq ptr %0, null
  br i1 %.not48, label %16, label %17

16:                                               ; preds = %15
  tail call void (ptr, ...) @cli_dbgmsg(ptr noundef nonnull @.str.5) #9
  br label %111

17:                                               ; preds = %15
  %18 = getelementptr inbounds i8, ptr %2, i64 64
  %19 = load ptr, ptr %18, align 8
  %20 = load i32, ptr %19, align 4
  %21 = and i32 %20, 2
  %.not49 = icmp eq i32 %21, 0
  br i1 %.not49, label %23, label %22

22:                                               ; preds = %17
  tail call void (ptr, ...) @cli_dbgmsg(ptr noundef nonnull @.str.6) #9
  br label %111

23:                                               ; preds = %17
  %24 = getelementptr inbounds i8, ptr %2, i64 96
  %25 = load ptr, ptr %24, align 8
  %.not50 = icmp eq ptr %25, null
  br i1 %.not50, label %31, label %26

26:                                               ; preds = %23
  %27 = getelementptr inbounds i8, ptr %25, i64 57
  %28 = load i8, ptr %27, align 1
  %29 = trunc i8 %28 to i1
  br i1 %29, label %30, label %31

30:                                               ; preds = %26
  tail call void (ptr, ...) @cli_dbgmsg(ptr noundef nonnull @.str.7) #9
  br label %111

31:                                               ; preds = %26, %23
  %32 = getelementptr inbounds i8, ptr %2, i64 24
  %33 = load ptr, ptr %32, align 8
  %34 = tail call i64 @evidence_num_alerts(ptr noundef %33) #9
  %.not51 = icmp eq i64 %34, 0
  br i1 %.not51, label %36, label %35

35:                                               ; preds = %31
  tail call void (ptr, ...) @cli_dbgmsg(ptr noundef nonnull @.str.8) #9
  br label %111

36:                                               ; preds = %31
  %37 = load ptr, ptr %24, align 8
  %.not52 = icmp eq ptr %37, null
  br i1 %.not52, label %45, label %38

38:                                               ; preds = %36
  %39 = getelementptr inbounds i8, ptr %37, i64 57
  %40 = load i8, ptr %39, align 1
  %41 = trunc i8 %40 to i1
  br i1 %41, label %42, label %45

42:                                               ; preds = %38
  %43 = getelementptr inbounds i8, ptr %2, i64 92
  %44 = load i32, ptr %43, align 4
  br label %45

45:                                               ; preds = %36, %38, %42
  %46 = phi i32 [ %44, %42 ], [ 0, %38 ], [ 0, %36 ]
  %47 = load ptr, ptr %5, align 8
  %48 = getelementptr inbounds i8, ptr %47, i64 232
  %49 = load ptr, ptr %48, align 8
  %50 = getelementptr inbounds i8, ptr %49, i64 32
  %51 = load i32, ptr %50, align 8
  %.val = load i16, ptr %0, align 1
  %52 = zext i16 %.val to i32
  %53 = getelementptr i8, ptr %0, i64 1
  %54 = urem i32 %52, %51
  %55 = zext nneg i32 %54 to i64
  %56 = getelementptr inbounds %struct.CACHE, ptr %49, i64 %55
  %57 = getelementptr inbounds i8, ptr %56, i64 40
  %58 = tail call i32 @pthread_mutex_lock(ptr noundef nonnull %57) #9
  %.not53 = icmp eq i32 %58, 0
  br i1 %.not53, label %60, label %59

59:                                               ; preds = %45
  tail call void (ptr, ...) @cli_errmsg(ptr noundef nonnull @.str.9) #9
  br label %111

60:                                               ; preds = %45
  %61 = tail call fastcc ptr @cacheset_add(ptr noundef nonnull %56, ptr noundef nonnull %0, i64 noundef %1, i32 noundef %46)
  %62 = tail call i32 @pthread_mutex_unlock(ptr noundef nonnull %57) #9
  %.not54 = icmp eq ptr %61, null
  br i1 %.not54, label %64, label %63

63:                                               ; preds = %60
  tail call void (ptr, ...) @cli_errmsg(ptr noundef nonnull @.str.10, ptr noundef nonnull %61) #9
  br label %64

64:                                               ; preds = %63, %60
  %65 = load i8, ptr %0, align 1
  %66 = zext i8 %65 to i32
  %67 = load i8, ptr %53, align 1
  %68 = zext i8 %67 to i32
  %69 = getelementptr inbounds i8, ptr %0, i64 2
  %70 = load i8, ptr %69, align 1
  %71 = zext i8 %70 to i32
  %72 = getelementptr inbounds i8, ptr %0, i64 3
  %73 = load i8, ptr %72, align 1
  %74 = zext i8 %73 to i32
  %75 = getelementptr inbounds i8, ptr %0, i64 4
  %76 = load i8, ptr %75, align 1
  %77 = zext i8 %76 to i32
  %78 = getelementptr inbounds i8, ptr %0, i64 5
  %79 = load i8, ptr %78, align 1
  %80 = zext i8 %79 to i32
  %81 = getelementptr inbounds i8, ptr %0, i64 6
  %82 = load i8, ptr %81, align 1
  %83 = zext i8 %82 to i32
  %84 = getelementptr inbounds i8, ptr %0, i64 7
  %85 = load i8, ptr %84, align 1
  %86 = zext i8 %85 to i32
  %87 = getelementptr inbounds i8, ptr %0, i64 8
  %88 = load i8, ptr %87, align 1
  %89 = zext i8 %88 to i32
  %90 = getelementptr inbounds i8, ptr %0, i64 9
  %91 = load i8, ptr %90, align 1
  %92 = zext i8 %91 to i32
  %93 = getelementptr inbounds i8, ptr %0, i64 10
  %94 = load i8, ptr %93, align 1
  %95 = zext i8 %94 to i32
  %96 = getelementptr inbounds i8, ptr %0, i64 11
  %97 = load i8, ptr %96, align 1
  %98 = zext i8 %97 to i32
  %99 = getelementptr inbounds i8, ptr %0, i64 12
  %100 = load i8, ptr %99, align 1
  %101 = zext i8 %100 to i32
  %102 = getelementptr inbounds i8, ptr %0, i64 13
  %103 = load i8, ptr %102, align 1
  %104 = zext i8 %103 to i32
  %105 = getelementptr inbounds i8, ptr %0, i64 14
  %106 = load i8, ptr %105, align 1
  %107 = zext i8 %106 to i32
  %108 = getelementptr inbounds i8, ptr %0, i64 15
  %109 = load i8, ptr %108, align 1
  %110 = zext i8 %109 to i32
  tail call void (ptr, ...) @cli_dbgmsg(ptr noundef nonnull @.str.11, i32 noundef %66, i32 noundef %68, i32 noundef %71, i32 noundef %74, i32 noundef %77, i32 noundef %80, i32 noundef %83, i32 noundef %86, i32 noundef %89, i32 noundef %92, i32 noundef %95, i32 noundef %98, i32 noundef %101, i32 noundef %104, i32 noundef %107, i32 noundef %110, i32 noundef %46) #9
  br label %111

111:                                              ; preds = %3, %4, %7, %64, %59, %35, %30, %22, %16, %14
  ret void
}